target datalayout = "e-m:e-p270:32:32-p271:32:32-p272:64:64-i64:64-i128:128-f80:128-n8:16:32:64-S128"
target triple = "x86_64-pc-linux-gnu"

%struct.Pla_Man_t_ = type { ptr, ptr, i32, i32, i32, i32, i32, %struct.Vec_Int_t_, %struct.Vec_Int_t_, %struct.Vec_Wrd_t_, %struct.Vec_Wrd_t_, %struct.Vec_Wec_t_, %struct.Vec_Wec_t_, %struct.Vec_Int_t_ }
%struct.Vec_Wrd_t_ = type { i32, i32, ptr }
%struct.Vec_Wec_t_ = type { i32, i32, ptr }
%struct.Vec_Int_t_ = type { i32, i32, ptr }
%struct.Abc_Frame_t_ = type { ptr, ptr, ptr, ptr, ptr, ptr, ptr, ptr, ptr, ptr, i32, i32, i32, i32, i32, ptr, float, float, i32, i32, ptr, ptr, ptr, double, double, ptr, ptr, ptr, ptr, ptr, ptr, ptr, ptr, ptr, ptr, ptr, ptr, float, ptr, i32, ptr, ptr, ptr, ptr, ptr, i32, i32, i32, i32, i32, i32, ptr, ptr, ptr, ptr, ptr, ptr, i32, i32, ptr, ptr, ptr, ptr, ptr, ptr, ptr, ptr, ptr, ptr, ptr, ptr, ptr, ptr, ptr, ptr, ptr, ptr, ptr, ptr, ptr, ptr, ptr, ptr, ptr, ptr, ptr, ptr, ptr, ptr }

@.str.7 = private unnamed_addr constant [3 x i8] c"vh\00", align 1
@globalUtilOptind = external global i32, align 4
@.str.18 = private unnamed_addr constant [62 x i8] c"\09-v     : toggle printing verbose information [default = %s]\0A\00", align 1
@.str.19 = private unnamed_addr constant [4 x i8] c"yes\00", align 1
@.str.20 = private unnamed_addr constant [3 x i8] c"no\00", align 1
@.str.21 = private unnamed_addr constant [35 x i8] c"\09-h     : print the command usage\0A\00", align 1
@.str.24 = private unnamed_addr constant [52 x i8] c"Abc_CommandWritePla(): There is no current design.\0A\00", align 1
@.str.25 = private unnamed_addr constant [7 x i8] c"_out.v\00", align 1
@.str.26 = private unnamed_addr constant [55 x i8] c"Output file name should be given on the command line.\0A\00", align 1
@.str.27 = private unnamed_addr constant [21 x i8] c"usage: |write [-vh]\0A\00", align 1
@.str.28 = private unnamed_addr constant [42 x i8] c"\09         writes the SOP into a PLA file\0A\00", align 1

; Function Attrs: inlinehint nounwind uwtable
define internal ptr @Pla_AbcGetMan(ptr noundef %0) #2 {
  %2 = alloca ptr, align 8
  store ptr %0, ptr %2, align 8, !tbaa !3
  %3 = load ptr, ptr %2, align 8, !tbaa !3
  %4 = getelementptr inbounds nuw %struct.Abc_Frame_t_, ptr %3, i32 0, i32 76
  %5 = load ptr, ptr %4, align 8, !tbaa !34
  ret ptr %5
}

; Function Attrs: nounwind uwtable
define internal i32 @Abc_CommandWritePla(ptr noundef %0, i32 noundef %1, ptr noundef %2) #0 {
  %4 = alloca i32, align 4
  %5 = alloca ptr, align 8
  %6 = alloca i32, align 4
  %7 = alloca ptr, align 8
  %8 = alloca ptr, align 8
  %9 = alloca ptr, align 8
  %10 = alloca i32, align 4
  %11 = alloca i32, align 4
  %12 = alloca i32, align 4
  store ptr %0, ptr %5, align 8, !tbaa !3
  store i32 %1, ptr %6, align 4, !tbaa !8
  store ptr %2, ptr %7, align 8, !tbaa !10
  call void @llvm.lifetime.start.p0(i64 8, ptr %8) #8
  %13 = load ptr, ptr %5, align 8, !tbaa !3
  %14 = call ptr @Pla_AbcGetMan(ptr noundef %13)
  store ptr %14, ptr %8, align 8, !tbaa !12
  call void @llvm.lifetime.start.p0(i64 8, ptr %9) #8
  store ptr null, ptr %9, align 8, !tbaa !14
  call void @llvm.lifetime.start.p0(i64 4, ptr %10) #8
  call void @llvm.lifetime.start.p0(i64 4, ptr %11) #8
  store i32 0, ptr %11, align 4, !tbaa !8
  call void (...) @Extra_UtilGetoptReset()
  br label %15

15:                                               ; preds = %27, %3
  %16 = load i32, ptr %6, align 4, !tbaa !8
  %17 = load ptr, ptr %7, align 8, !tbaa !10
  %18 = call i32 @Extra_UtilGetopt(i32 noundef %16, ptr noundef %17, ptr noundef @.str.7)
  store i32 %18, ptr %10, align 4, !tbaa !8
  %19 = icmp ne i32 %18, -1
  br i1 %19, label %20, label %28

20:                                               ; preds = %15
  %21 = load i32, ptr %10, align 4, !tbaa !8
  switch i32 %21, label %26 [
    i32 118, label %22
    i32 104, label %25
  ]

22:                                               ; preds = %20
  %23 = load i32, ptr %11, align 4, !tbaa !8
  %24 = xor i32 %23, 1
  store i32 %24, ptr %11, align 4, !tbaa !8
  br label %27

25:                                               ; preds = %20
  br label %58

26:                                               ; preds = %20
  br label %58

27:                                               ; preds = %22
  br label %15, !llvm.loop !20

28:                                               ; preds = %15
  %29 = load ptr, ptr %8, align 8, !tbaa !12
  %30 = icmp eq ptr %29, null
  br i1 %30, label %31, label %32

31:                                               ; preds = %28
  call void (i32, ptr, ...) @Abc_Print(i32 noundef 1, ptr noundef @.str.24)
  store i32 0, ptr %4, align 4
  store i32 1, ptr %12, align 4
  br label %62

32:                                               ; preds = %28
  %33 = load i32, ptr %6, align 4, !tbaa !8
  %34 = load i32, ptr @globalUtilOptind, align 4, !tbaa !8
  %35 = icmp eq i32 %33, %34
  br i1 %35, label %36, label %41

36:                                               ; preds = %32
  %37 = load ptr, ptr %8, align 8, !tbaa !12
  %38 = getelementptr inbounds nuw %struct.Pla_Man_t_, ptr %37, i32 0, i32 0
  %39 = load ptr, ptr %38, align 8, !tbaa !21
  %40 = call ptr @Extra_FileNameGenericAppend(ptr noundef %39, ptr noundef @.str.25)
  store ptr %40, ptr %9, align 8, !tbaa !14
  br label %55

41:                                               ; preds = %32
  %42 = load i32, ptr %6, align 4, !tbaa !8
  %43 = load i32, ptr @globalUtilOptind, align 4, !tbaa !8
  %44 = add nsw i32 %43, 1
  %45 = icmp eq i32 %42, %44
  br i1 %45, label %46, label %52

46:                                               ; preds = %41
  %47 = load ptr, ptr %7, align 8, !tbaa !10
  %48 = load i32, ptr @globalUtilOptind, align 4, !tbaa !8
  %49 = sext i32 %48 to i64
  %50 = getelementptr inbounds ptr, ptr %47, i64 %49
  %51 = load ptr, ptr %50, align 8, !tbaa !14
  store ptr %51, ptr %9, align 8, !tbaa !14
  br label %54

52:                                               ; preds = %41
  %53 = call i32 (ptr, ...) @printf(ptr noundef @.str.26)
  store i32 0, ptr %4, align 4
  store i32 1, ptr %12, align 4
  br label %62

54:                                               ; preds = %46
  br label %55

55:                                               ; preds = %54, %36
  %56 = load ptr, ptr %8, align 8, !tbaa !12
  %57 = load ptr, ptr %9, align 8, !tbaa !14
  call void @Pla_WritePla(ptr noundef %56, ptr noundef %57)
  store i32 0, ptr %4, align 4
  store i32 1, ptr %12, align 4
  br label %62

58:                                               ; preds = %26, %25
  call void (i32, ptr, ...) @Abc_Print(i32 noundef -2, ptr noundef @.str.27)
  call void (i32, ptr, ...) @Abc_Print(i32 noundef -2, ptr noundef @.str.28)
  %59 = load i32, ptr %11, align 4, !tbaa !8
  %60 = icmp ne i32 %59, 0
  %61 = select i1 %60, ptr @.str.19, ptr @.str.20
  call void (i32, ptr, ...) @Abc_Print(i32 noundef -2, ptr noundef @.str.18, ptr noundef %61)
  call void (i32, ptr, ...) @Abc_Print(i32 noundef -2, ptr noundef @.str.21)
  store i32 1, ptr %4, align 4
  store i32 1, ptr %12, align 4
  br label %62

62:                                               ; preds = %58, %55, %52, %31
  call void @llvm.lifetime.end.p0(i64 4, ptr %11) #8
  call void @llvm.lifetime.end.p0(i64 4, ptr %10) #8
  call void @llvm.lifetime.end.p0(i64 8, ptr %9) #8
  call void @llvm.lifetime.end.p0(i64 8, ptr %8) #8
  %63 = load i32, ptr %4, align 4
  ret i32 %63
}