; Function Attrs: nounwind uwtable
define internal range(i32 0, 2) i32 @Abc_CommandWritePla(ptr noundef readonly captures(none) %0, i32 noundef %1, ptr noundef %2) #0 {
  %4 = getelementptr i8, ptr %0, i64 544
  %.val = load ptr, ptr %4, align 8, !tbaa !12
  tail call void (...) @Extra_UtilGetoptReset() #10
  br label %5

5:                                                ; preds = %7, %3
  %.0 = phi i32 [ 0, %3 ], [ %8, %7 ]
  %6 = tail call i32 @Extra_UtilGetopt(i32 noundef %1, ptr noundef %2, ptr noundef nonnull @.str.7) #10
  switch i32 %6, label %27 [
    i32 -1, label %9
    i32 118, label %7
  ]

7:                                                ; preds = %5
  %8 = xor i32 %.0, 1
  br label %5, !llvm.loop !27

9:                                                ; preds = %5
  %10 = icmp eq ptr %.val, null
  br i1 %10, label %11, label %12

11:                                               ; preds = %9
  tail call void (i32, ptr, ...) @Abc_Print(i32 noundef 1, ptr noundef nonnull @.str.24)
  br label %29

12:                                               ; preds = %9
  %13 = load i32, ptr @globalUtilOptind, align 4, !tbaa !5
  %14 = icmp eq i32 %1, %13
  br i1 %14, label %15, label %18

15:                                               ; preds = %12
  %16 = load ptr, ptr %.val, align 8, !tbaa !28
  %17 = tail call ptr @Extra_FileNameGenericAppend(ptr noundef %16, ptr noundef nonnull @.str.25) #10
  br label %26

18:                                               ; preds = %12
  %19 = add nsw i32 %13, 1
  %20 = icmp eq i32 %1, %19
  br i1 %20, label %21, label %25

21:                                               ; preds = %18
  %22 = sext i32 %13 to i64
  %23 = getelementptr inbounds ptr, ptr %2, i64 %22
  %24 = load ptr, ptr %23, align 8, !tbaa !9
  br label %26

25:                                               ; preds = %18
  %puts = tail call i32 @puts(ptr nonnull dereferenceable(1) @str.2)
  br label %29

26:                                               ; preds = %21, %15
  %.014 = phi ptr [ %17, %15 ], [ %24, %21 ]
  tail call void @Pla_WritePla(ptr noundef nonnull %.val, ptr noundef %.014) #10
  br label %29

27:                                               ; preds = %5
  tail call void (i32, ptr, ...) @Abc_Print(i32 noundef -2, ptr noundef nonnull @.str.27)
  tail call void (i32, ptr, ...) @Abc_Print(i32 noundef -2, ptr noundef nonnull @.str.28)
  %.not19 = icmp eq i32 %.0, 0
  %28 = select i1 %.not19, ptr @.str.20, ptr @.str.19
  tail call void (i32, ptr, ...) @Abc_Print(i32 noundef -2, ptr noundef nonnull @.str.18, ptr noundef nonnull %28)
  tail call void (i32, ptr, ...) @Abc_Print(i32 noundef -2, ptr noundef nonnull @.str.21)
  br label %29

29:                                               ; preds = %27, %26, %25, %11
  %.013 = phi i32 [ 1, %27 ], [ 0, %11 ], [ 0, %26 ], [ 0, %25 ]
  ret i32 %.013
}